
_main:

;SERIAL.c,15 :: 		void main() org 0x2000               //Se define el registro a partir del cual se alamcenara el codigo lógico
;SERIAL.c,17 :: 		ANSELC = 0;
	CLRF        ANSELC+0 
;SERIAL.c,18 :: 		TRISB = 0x00;                      //Puerto B como salida
	CLRF        TRISB+0 
;SERIAL.c,19 :: 		LATA4_bit = 0;                     //Pin A1 en estado bajo
	BCF         LATA4_bit+0, BitPos(LATA4_bit+0) 
;SERIAL.c,20 :: 		TRISA4_bit = 0;                    //Pin A1 como salida
	BCF         TRISA4_bit+0, BitPos(TRISA4_bit+0) 
;SERIAL.c,21 :: 		TRISA2_bit = 1;                    //Pin A2 como salida
	BSF         TRISA2_bit+0, BitPos(TRISA2_bit+0) 
;SERIAL.c,22 :: 		ANSA2_bit = 0;                     //Pin A1 como digital
	BCF         ANSA2_bit+0, BitPos(ANSA2_bit+0) 
;SERIAL.c,23 :: 		UART1_Init(9600);                  //Se asigna la velocidad del baudrate
	BSF         BAUDCON+0, 3, 0
	MOVLW       4
	MOVWF       SPBRGH+0 
	MOVLW       225
	MOVWF       SPBRG+0 
	BSF         TXSTA+0, 2, 0
	CALL        _UART1_Init+0, 0
;SERIAL.c,24 :: 		while(1){
L_main0:
;SERIAL.c,25 :: 		if (UART1_Data_Ready() == 1) {         //Pregunta si ha recibido algún dato por el puerto serial
	CALL        _UART1_Data_Ready+0, 0
	MOVF        R0, 0 
	XORLW       1
	BTFSS       STATUS+0, 2 
	GOTO        L_main2
;SERIAL.c,27 :: 		char Caracter = UART1_Read();   //Guarda el caracter
	CALL        _UART1_Read+0, 0
	MOVF        R0, 0 
	MOVWF       main_Caracter_L2+0 
;SERIAL.c,29 :: 		if (Caracter == '0') {
	MOVF        R0, 0 
	XORLW       48
	BTFSS       STATUS+0, 2 
	GOTO        L_main3
;SERIAL.c,30 :: 		LED_OFF;                     //Apaga el LED
	BCF         LATA4_bit+0, BitPos(LATA4_bit+0) 
;SERIAL.c,31 :: 		UART1_Write_Text("LED APAGADO");
	MOVLW       ?lstr1_SERIAL+0
	MOVWF       FARG_UART1_Write_Text_uart_text+0 
	MOVLW       hi_addr(?lstr1_SERIAL+0)
	MOVWF       FARG_UART1_Write_Text_uart_text+1 
	CALL        _UART1_Write_Text+0, 0
;SERIAL.c,32 :: 		}
	GOTO        L_main4
L_main3:
;SERIAL.c,33 :: 		else if (Caracter == '1') {
	MOVF        main_Caracter_L2+0, 0 
	XORLW       49
	BTFSS       STATUS+0, 2 
	GOTO        L_main5
;SERIAL.c,34 :: 		LED_ON;                      //Enciende el LED
	BSF         LATA4_bit+0, BitPos(LATA4_bit+0) 
;SERIAL.c,35 :: 		UART1_Write_Text("LED ENCENDIDO");
	MOVLW       ?lstr2_SERIAL+0
	MOVWF       FARG_UART1_Write_Text_uart_text+0 
	MOVLW       hi_addr(?lstr2_SERIAL+0)
	MOVWF       FARG_UART1_Write_Text_uart_text+1 
	CALL        _UART1_Write_Text+0, 0
;SERIAL.c,36 :: 		}
	GOTO        L_main6
L_main5:
;SERIAL.c,37 :: 		else if (Caracter == '?') {
	MOVF        main_Caracter_L2+0, 0 
	XORLW       63
	BTFSS       STATUS+0, 2 
	GOTO        L_main7
;SERIAL.c,38 :: 		if (BOTON==1) {              //Pregunta el estado del botón
	BTFSS       PORTA+0, 2 
	GOTO        L_main8
;SERIAL.c,39 :: 		UART1_Write('0');          //Envía un 0 si el botón no está presionado
	MOVLW       48
	MOVWF       FARG_UART1_Write_data_+0 
	CALL        _UART1_Write+0, 0
;SERIAL.c,40 :: 		} else {
	GOTO        L_main9
L_main8:
;SERIAL.c,41 :: 		UART1_Write('1');          //Envía un 1 si el botón está presionado
	MOVLW       49
	MOVWF       FARG_UART1_Write_data_+0 
	CALL        _UART1_Write+0, 0
;SERIAL.c,42 :: 		}
L_main9:
;SERIAL.c,43 :: 		}
L_main7:
L_main6:
L_main4:
;SERIAL.c,44 :: 		}
L_main2:
;SERIAL.c,45 :: 		}
	GOTO        L_main0
;SERIAL.c,46 :: 		}
L_end_main:
	GOTO        $+0
; end of _main
